Certificate:
    Data:
        Version: 3 (0x2)
        Serial Number: 1 (0x1)
    Signature Algorithm: sha1WithRSAEncryption
        Issuer: DC=org, DC=simple, O=Simple Inc, OU=Simple Signing CA, CN=Simple Signing CA
        Validity
            Not Before: Apr 22 02:04:20 2019 GMT
            Not After : Apr 21 02:04:20 2021 GMT
        Subject: DC=org, DC=simple, O=Simple Inc, CN=Fred Flintstone
        Subject Public Key Info:
            Public Key Algorithm: rsaEncryption
                Public-Key: (2048 bit)
                Modulus:
                    00:cd:74:3f:cf:c5:a2:55:9d:52:28:f8:5e:e3:1f:
                    de:b8:ce:e6:4c:84:ea:e0:b9:0b:14:c5:ee:68:13:
                    aa:fc:a6:ce:8f:d9:46:e5:14:85:31:39:f1:ef:c5:
                    59:f3:de:a6:69:d6:72:8b:15:39:85:0e:dd:e7:c3:
                    aa:1e:17:99:64:6c:52:9d:94:b1:7b:ec:84:c0:a0:
                    9d:83:f7:3c:f5:ab:01:c5:02:a6:1f:c5:a2:0f:dd:
                    6d:a3:29:a5:cc:9e:c4:78:f2:97:dd:bd:5c:00:6a:
                    ca:ff:8f:fd:a1:8d:5a:cc:67:e5:7a:64:5b:f1:e5:
                    b0:39:a1:9f:e2:7e:22:52:24:cd:e6:2c:4a:1a:ff:
                    81:5e:02:46:67:c8:20:09:9e:05:17:9d:25:68:d2:
                    ae:02:8f:35:5a:ae:f1:34:14:ba:a7:36:0d:ef:f9:
                    e5:3c:2f:6d:58:1f:9f:15:14:83:59:5a:9b:6b:1d:
                    8c:98:0d:04:e4:4e:e9:18:4e:d1:3c:ae:a9:85:e1:
                    19:3f:c0:8c:c5:bd:54:67:f8:a2:d0:1e:f8:0a:06:
                    a5:0a:2c:75:0c:b3:78:15:90:70:21:cc:df:e9:44:
                    e8:b8:db:57:e8:02:2f:26:94:90:cc:e5:44:bd:8d:
                    bf:73:4c:54:3b:6c:fa:34:ce:ce:f7:63:af:75:6f:
                    c1:af
                Exponent: 65537 (0x10001)
        X509v3 extensions:
            X509v3 Key Usage: critical
                Digital Signature, Key Encipherment
            X509v3 Basic Constraints: 
                CA:FALSE
            X509v3 Extended Key Usage: 
                E-mail Protection, TLS Web Client Authentication
            X509v3 Subject Key Identifier: 
                B6:6C:86:12:E6:8F:1D:0F:76:99:A1:22:F9:34:C6:4F:73:7A:E9:EC
            X509v3 Authority Key Identifier: 
                keyid:D8:2B:4A:B3:77:41:71:98:A8:07:FA:50:FB:0F:15:92:47:7D:20:45

            X509v3 Subject Alternative Name: 
                email:fred@simple.org
    Signature Algorithm: sha1WithRSAEncryption
         21:c4:e9:ff:30:e7:a2:5b:82:b2:a2:26:cb:a5:4b:50:1f:2e:
         3a:38:1b:cc:b5:0e:eb:96:23:f1:97:49:c1:fe:32:c0:e3:ea:
         2a:b0:c5:98:83:00:b3:31:fb:3d:67:ed:a2:ba:59:86:ae:58:
         ae:06:cb:a4:e5:6e:a0:b4:59:c3:89:47:30:06:b1:43:b9:8a:
         be:51:e9:0b:93:d5:ef:4d:0e:06:e8:db:53:77:8b:00:47:3d:
         a1:03:07:e4:f4:5c:a2:f8:9c:75:20:40:cd:c6:37:55:f2:36:
         06:cf:50:61:c6:91:c2:96:8f:c5:41:f1:91:fe:b0:fa:82:c1:
         eb:50:60:fc:b9:c2:5c:46:27:a9:99:f4:44:59:d4:ea:d2:70:
         c6:d3:a3:a6:9a:33:b5:fa:bf:1b:d0:5c:e5:92:ae:1d:ce:55:
         df:4b:73:f1:b0:85:d7:9a:ee:7e:7d:fb:9d:86:3d:31:08:8d:
         14:6c:32:d0:5c:e8:cd:93:2e:e5:e5:bd:31:52:d9:a1:83:8d:
         54:df:86:c1:38:aa:e0:ee:36:ed:42:7c:af:98:76:80:cd:c1:
         55:e9:b8:f1:8b:ae:88:1c:96:f8:ec:d2:ca:cd:43:ba:69:b9:
         90:f7:8f:16:84:f4:d4:c0:95:b9:29:20:4b:0a:3c:ac:0a:8d:
         5c:a0:8c:1c
-----BEGIN CERTIFICATE-----
MIID6zCCAtOgAwIBAgIBATANBgkqhkiG9w0BAQUFADB6MRMwEQYKCZImiZPyLGQB
GRYDb3JnMRYwFAYKCZImiZPyLGQBGRYGc2ltcGxlMRMwEQYDVQQKDApTaW1wbGUg
SW5jMRowGAYDVQQLDBFTaW1wbGUgU2lnbmluZyBDQTEaMBgGA1UEAwwRU2ltcGxl
IFNpZ25pbmcgQ0EwHhcNMTkwNDIyMDIwNDIwWhcNMjEwNDIxMDIwNDIwWjBcMRMw
EQYKCZImiZPyLGQBGRYDb3JnMRYwFAYKCZImiZPyLGQBGRYGc2ltcGxlMRMwEQYD
VQQKDApTaW1wbGUgSW5jMRgwFgYDVQQDDA9GcmVkIEZsaW50c3RvbmUwggEiMA0G
CSqGSIb3DQEBAQUAA4IBDwAwggEKAoIBAQDNdD/PxaJVnVIo+F7jH964zuZMhOrg
uQsUxe5oE6r8ps6P2UblFIUxOfHvxVnz3qZp1nKLFTmFDt3nw6oeF5lkbFKdlLF7
7ITAoJ2D9zz1qwHFAqYfxaIP3W2jKaXMnsR48pfdvVwAasr/j/2hjVrMZ+V6ZFvx
5bA5oZ/ifiJSJM3mLEoa/4FeAkZnyCAJngUXnSVo0q4CjzVarvE0FLqnNg3v+eU8
L21YH58VFINZWptrHYyYDQTkTukYTtE8rqmF4Rk/wIzFvVRn+KLQHvgKBqUKLHUM
s3gVkHAhzN/pROi421foAi8mlJDM5US9jb9zTFQ7bPo0zs73Y691b8GvAgMBAAGj
gZkwgZYwDgYDVR0PAQH/BAQDAgWgMAkGA1UdEwQCMAAwHQYDVR0lBBYwFAYIKwYB
BQUHAwQGCCsGAQUFBwMCMB0GA1UdDgQWBBS2bIYS5o8dD3aZoSL5NMZPc3rp7DAf
BgNVHSMEGDAWgBTYK0qzd0FxmKgH+lD7DxWSR30gRTAaBgNVHREEEzARgQ9mcmVk
QHNpbXBsZS5vcmcwDQYJKoZIhvcNAQEFBQADggEBACHE6f8w56JbgrKiJsulS1Af
Ljo4G8y1DuuWI/GXScH+MsDj6iqwxZiDALMx+z1n7aK6WYauWK4Gy6TlbqC0WcOJ
RzAGsUO5ir5R6QuT1e9NDgbo21N3iwBHPaEDB+T0XKL4nHUgQM3GN1XyNgbPUGHG
kcKWj8VB8ZH+sPqCwetQYPy5wlxGJ6mZ9ERZ1OrScMbTo6aaM7X6vxvQXOWSrh3O
Vd9Lc/Gwhdea7n59+52GPTEIjRRsMtBc6M2TLuXlvTFS2aGDjVTfhsE4quDuNu1C
fK+YdoDNwVXpuPGLrogclvjs0srNQ7ppuZD3jxaE9NTAlbkpIEsKPKwKjVygjBw=
-----END CERTIFICATE-----
