Certificate:
    Data:
        Version: 3 (0x2)
        Serial Number: 3 (0x3)
    Signature Algorithm: sha1WithRSAEncryption
        Issuer: DC=org, DC=simple, O=Simple Inc, OU=Simple Signing CA, CN=Simple Signing CA
        Validity
            Not Before: Apr 22 02:15:15 2019 GMT
            Not After : Apr 21 02:15:15 2021 GMT
        Subject: DC=org, DC=simple, O=Simple Inc, CN=Fred Flintstone
        Subject Public Key Info:
            Public Key Algorithm: rsaEncryption
                Public-Key: (2048 bit)
                Modulus:
                    00:ca:21:4f:91:5d:d0:40:bb:64:f1:b4:49:76:d9:
                    70:19:e7:c0:58:ce:83:aa:d5:e3:c0:0e:0e:6c:76:
                    b4:ef:d4:37:1e:c1:5a:59:5f:b8:78:68:be:9e:ee:
                    86:ea:0d:67:0f:c0:e6:7a:42:9a:87:59:96:89:56:
                    79:37:97:33:05:bd:49:20:94:2e:ef:b8:a8:e6:43:
                    1b:24:d8:72:f6:06:59:29:c8:63:8f:43:56:f0:eb:
                    2a:25:07:91:75:58:04:3e:7a:aa:14:6e:dd:e2:e8:
                    33:4f:2a:bf:73:23:a6:f8:85:99:79:86:34:88:a4:
                    f4:e5:ef:8f:9d:b6:6c:0e:34:39:82:b7:91:51:0d:
                    27:ea:72:55:cc:c9:c1:bb:c8:fd:fe:5c:be:10:dc:
                    f4:3b:4b:c8:fe:fe:da:24:ce:36:ad:c6:df:08:44:
                    82:c4:d2:56:1c:82:6c:b4:35:b0:d7:45:53:5f:30:
                    18:61:1f:25:0a:2d:26:69:9f:40:fd:60:2c:60:c9:
                    37:19:8d:90:10:6a:c6:3d:31:36:62:d0:28:52:aa:
                    9f:d9:d7:c4:c5:69:8a:35:f3:fb:45:08:8d:2f:0c:
                    42:2e:19:9b:93:5d:73:a1:a0:42:8e:8a:33:b8:5b:
                    db:07:9f:54:93:c9:99:52:ec:14:5e:f4:6f:ee:bf:
                    23:0b
                Exponent: 65537 (0x10001)
        X509v3 extensions:
            X509v3 Key Usage: critical
                Digital Signature, Key Encipherment
            X509v3 Basic Constraints: 
                CA:FALSE
            X509v3 Extended Key Usage: 
                E-mail Protection, TLS Web Client Authentication
            X509v3 Subject Key Identifier: 
                CF:6E:74:7A:B0:FA:21:37:77:06:26:54:78:2B:9A:A4:A1:C3:B0:D2
            X509v3 Authority Key Identifier: 
                keyid:D8:2B:4A:B3:77:41:71:98:A8:07:FA:50:FB:0F:15:92:47:7D:20:45

            X509v3 Subject Alternative Name: 
                email:fred@simple.org
    Signature Algorithm: sha1WithRSAEncryption
         0f:20:03:47:17:32:b9:30:9d:5d:7c:aa:80:81:c8:d6:fc:9a:
         6c:8f:4c:8d:2a:33:71:82:39:08:2e:9a:75:36:41:c7:6d:52:
         3f:93:b0:af:57:42:cc:60:37:00:18:90:c9:e7:0a:db:a7:b6:
         db:0d:e6:91:97:bb:47:61:58:92:a0:1f:12:9e:5e:32:92:29:
         23:04:2a:5d:0e:4a:33:d7:e5:67:4d:5d:85:73:38:22:27:58:
         ca:68:9f:15:cd:78:30:df:29:f1:05:79:12:d3:4a:e5:0c:a6:
         e7:16:ff:37:56:b4:8a:69:d9:0d:1d:7b:01:8e:12:2d:e8:d7:
         4d:3b:5e:91:56:d0:86:71:9b:bf:e4:43:59:2c:d0:4b:f1:28:
         a3:4b:75:41:d1:9a:e9:c5:8a:96:73:6e:ce:f5:7d:16:ed:4a:
         68:43:c0:c8:fb:9b:74:04:c0:d9:10:1b:cb:bb:cb:7f:84:c5:
         3c:32:96:12:c9:cd:c5:97:89:56:22:b2:2e:9b:56:0d:fd:e3:
         d0:7b:fd:a3:26:11:af:62:31:ea:43:43:28:58:28:1b:f6:2f:
         b5:c0:14:8b:74:7b:2c:c5:e1:a7:2d:86:13:b6:65:6a:96:5b:
         41:73:c4:22:11:c1:00:7a:98:a4:d6:40:fb:b6:33:0e:a0:02:
         17:e3:f8:1c
-----BEGIN CERTIFICATE-----
MIID6zCCAtOgAwIBAgIBAzANBgkqhkiG9w0BAQUFADB6MRMwEQYKCZImiZPyLGQB
GRYDb3JnMRYwFAYKCZImiZPyLGQBGRYGc2ltcGxlMRMwEQYDVQQKDApTaW1wbGUg
SW5jMRowGAYDVQQLDBFTaW1wbGUgU2lnbmluZyBDQTEaMBgGA1UEAwwRU2ltcGxl
IFNpZ25pbmcgQ0EwHhcNMTkwNDIyMDIxNTE1WhcNMjEwNDIxMDIxNTE1WjBcMRMw
EQYKCZImiZPyLGQBGRYDb3JnMRYwFAYKCZImiZPyLGQBGRYGc2ltcGxlMRMwEQYD
VQQKDApTaW1wbGUgSW5jMRgwFgYDVQQDDA9GcmVkIEZsaW50c3RvbmUwggEiMA0G
CSqGSIb3DQEBAQUAA4IBDwAwggEKAoIBAQDKIU+RXdBAu2TxtEl22XAZ58BYzoOq
1ePADg5sdrTv1DcewVpZX7h4aL6e7obqDWcPwOZ6QpqHWZaJVnk3lzMFvUkglC7v
uKjmQxsk2HL2BlkpyGOPQ1bw6yolB5F1WAQ+eqoUbt3i6DNPKr9zI6b4hZl5hjSI
pPTl74+dtmwONDmCt5FRDSfqclXMycG7yP3+XL4Q3PQ7S8j+/tokzjatxt8IRILE
0lYcgmy0NbDXRVNfMBhhHyUKLSZpn0D9YCxgyTcZjZAQasY9MTZi0ChSqp/Z18TF
aYo18/tFCI0vDEIuGZuTXXOhoEKOijO4W9sHn1STyZlS7BRe9G/uvyMLAgMBAAGj
gZkwgZYwDgYDVR0PAQH/BAQDAgWgMAkGA1UdEwQCMAAwHQYDVR0lBBYwFAYIKwYB
BQUHAwQGCCsGAQUFBwMCMB0GA1UdDgQWBBTPbnR6sPohN3cGJlR4K5qkocOw0jAf
BgNVHSMEGDAWgBTYK0qzd0FxmKgH+lD7DxWSR30gRTAaBgNVHREEEzARgQ9mcmVk
QHNpbXBsZS5vcmcwDQYJKoZIhvcNAQEFBQADggEBAA8gA0cXMrkwnV18qoCByNb8
mmyPTI0qM3GCOQgumnU2QcdtUj+TsK9XQsxgNwAYkMnnCtunttsN5pGXu0dhWJKg
HxKeXjKSKSMEKl0OSjPX5WdNXYVzOCInWMponxXNeDDfKfEFeRLTSuUMpucW/zdW
tIpp2Q0dewGOEi3o1007XpFW0IZxm7/kQ1ks0EvxKKNLdUHRmunFipZzbs71fRbt
SmhDwMj7m3QEwNkQG8u7y3+ExTwylhLJzcWXiVYisi6bVg3949B7/aMmEa9iMepD
QyhYKBv2L7XAFIt0eyzF4acthhO2ZWqWW0FzxCIRwQB6mKTWQPu2Mw6gAhfj+Bw=
-----END CERTIFICATE-----
