Certificate:
    Data:
        Version: 3 (0x2)
        Serial Number: 2 (0x2)
    Signature Algorithm: sha1WithRSAEncryption
        Issuer: DC=org, DC=simple, O=Simple Inc, OU=Simple Root CA, CN=Simple Root CA
        Validity
            Not Before: Apr 22 02:02:22 2019 GMT
            Not After : Apr 21 02:02:22 2029 GMT
        Subject: DC=org, DC=simple, O=Simple Inc, OU=Simple Signing CA, CN=Simple Signing CA
        Subject Public Key Info:
            Public Key Algorithm: rsaEncryption
                Public-Key: (2048 bit)
                Modulus:
                    00:ac:3f:e7:f3:15:b2:7d:d0:44:2c:8e:f2:f1:d1:
                    17:2c:73:f9:a5:d1:f7:9e:3f:e1:d0:d3:9d:a2:f4:
                    c6:87:f8:35:d5:ea:5e:21:91:5b:95:c6:32:0e:b1:
                    2d:8e:c0:61:8d:ec:30:e1:53:b3:98:d6:d4:11:dc:
                    cc:ab:26:07:f5:4d:1e:2b:66:43:03:84:2b:7e:e4:
                    26:62:bd:9d:12:48:37:0a:55:27:60:ac:e8:9d:e9:
                    a8:52:ca:14:3f:0c:2d:43:d5:54:b3:86:cd:da:cb:
                    d4:49:87:78:db:d4:43:91:81:7f:f8:fe:f1:53:2d:
                    f5:5c:d1:76:00:79:5e:cf:b9:3b:f3:9c:01:c4:d9:
                    ac:14:a9:3e:d4:19:b6:ee:76:f7:59:8b:16:d2:50:
                    d3:8e:6b:d8:30:6c:db:44:26:3d:d3:91:ab:76:7d:
                    1d:af:6e:0e:c8:25:8b:0a:e8:9d:27:da:1f:23:b9:
                    42:df:3f:f7:b1:71:80:b5:e5:08:61:7a:5e:74:ad:
                    be:6e:bc:f1:30:54:18:9c:2d:28:33:1a:1f:d4:e9:
                    33:c9:3f:b3:b3:d7:13:de:e9:2e:6b:c5:75:d9:8d:
                    51:9b:ff:2b:ba:44:f5:11:dd:c2:6f:c3:96:36:29:
                    14:d0:60:5b:3c:8f:15:72:fd:66:14:dd:14:da:ff:
                    c2:17
                Exponent: 65537 (0x10001)
        X509v3 extensions:
            X509v3 Key Usage: critical
                Certificate Sign, CRL Sign
            X509v3 Basic Constraints: critical
                CA:TRUE, pathlen:0
            X509v3 Subject Key Identifier: 
                D8:2B:4A:B3:77:41:71:98:A8:07:FA:50:FB:0F:15:92:47:7D:20:45
            X509v3 Authority Key Identifier: 
                keyid:A4:FE:E8:BA:E6:A4:F4:C4:1F:1C:DB:55:08:6E:35:20:F7:03:02:AD

    Signature Algorithm: sha1WithRSAEncryption
         a0:0c:01:0c:02:5a:15:a5:45:19:f6:39:4d:2d:6d:fb:c9:0f:
         40:bf:97:be:2b:ad:5a:91:2c:fd:a7:17:b0:ef:c5:2a:c9:98:
         06:37:d5:ce:1d:58:7f:bb:b1:f7:57:7d:33:8b:a8:b5:7e:e2:
         ee:44:dd:14:04:ca:ac:aa:37:a3:b8:b6:01:c4:68:3f:7c:3c:
         13:49:90:62:55:0b:36:41:96:aa:aa:74:cb:01:37:75:08:16:
         84:fb:ad:43:a8:bc:46:e5:90:97:cd:ba:02:42:01:09:ea:cc:
         05:e3:9b:bc:4a:44:3f:9c:e1:e8:07:c2:42:70:31:b2:e3:55:
         4d:a1:0e:0d:25:ec:45:6d:6b:91:ad:19:73:6f:73:b2:f4:7c:
         a5:1b:c5:4e:47:ce:7a:e2:e4:22:28:fa:22:ce:7d:3a:c0:e5:
         45:38:19:53:dc:42:32:0a:bf:79:fd:f1:6a:b9:01:ae:ec:0e:
         06:c1:82:75:da:76:d8:dc:7a:b7:e2:b7:5f:f4:b0:00:74:a6:
         4e:66:db:ba:d8:64:7f:5b:4b:b4:8c:a2:10:19:29:8a:e2:bc:
         d9:47:b6:48:e7:d7:3a:63:93:40:63:c5:f3:da:ca:05:94:63:
         07:8c:3c:71:57:43:7f:f3:1e:79:78:73:ca:98:6a:25:e9:85:
         45:2e:85:3b
-----BEGIN CERTIFICATE-----
MIIDzzCCAregAwIBAgIBAjANBgkqhkiG9w0BAQUFADB0MRMwEQYKCZImiZPyLGQB
GRYDb3JnMRYwFAYKCZImiZPyLGQBGRYGc2ltcGxlMRMwEQYDVQQKDApTaW1wbGUg
SW5jMRcwFQYDVQQLDA5TaW1wbGUgUm9vdCBDQTEXMBUGA1UEAwwOU2ltcGxlIFJv
b3QgQ0EwHhcNMTkwNDIyMDIwMjIyWhcNMjkwNDIxMDIwMjIyWjB6MRMwEQYKCZIm
iZPyLGQBGRYDb3JnMRYwFAYKCZImiZPyLGQBGRYGc2ltcGxlMRMwEQYDVQQKDApT
aW1wbGUgSW5jMRowGAYDVQQLDBFTaW1wbGUgU2lnbmluZyBDQTEaMBgGA1UEAwwR
U2ltcGxlIFNpZ25pbmcgQ0EwggEiMA0GCSqGSIb3DQEBAQUAA4IBDwAwggEKAoIB
AQCsP+fzFbJ90EQsjvLx0Rcsc/ml0feeP+HQ052i9MaH+DXV6l4hkVuVxjIOsS2O
wGGN7DDhU7OY1tQR3MyrJgf1TR4rZkMDhCt+5CZivZ0SSDcKVSdgrOid6ahSyhQ/
DC1D1VSzhs3ay9RJh3jb1EORgX/4/vFTLfVc0XYAeV7PuTvznAHE2awUqT7UGbbu
dvdZixbSUNOOa9gwbNtEJj3Tkat2fR2vbg7IJYsK6J0n2h8juULfP/excYC15Qhh
el50rb5uvPEwVBicLSgzGh/U6TPJP7Oz1xPe6S5rxXXZjVGb/yu6RPUR3cJvw5Y2
KRTQYFs8jxVy/WYU3RTa/8IXAgMBAAGjZjBkMA4GA1UdDwEB/wQEAwIBBjASBgNV
HRMBAf8ECDAGAQH/AgEAMB0GA1UdDgQWBBTYK0qzd0FxmKgH+lD7DxWSR30gRTAf
BgNVHSMEGDAWgBSk/ui65qT0xB8c21UIbjUg9wMCrTANBgkqhkiG9w0BAQUFAAOC
AQEAoAwBDAJaFaVFGfY5TS1t+8kPQL+XviutWpEs/acXsO/FKsmYBjfVzh1Yf7ux
91d9M4uotX7i7kTdFATKrKo3o7i2AcRoP3w8E0mQYlULNkGWqqp0ywE3dQgWhPut
Q6i8RuWQl826AkIBCerMBeObvEpEP5zh6AfCQnAxsuNVTaEODSXsRW1rka0Zc29z
svR8pRvFTkfOeuLkIij6Is59OsDlRTgZU9xCMgq/ef3xarkBruwOBsGCddp22Nx6
t+K3X/SwAHSmTmbbuthkf1tLtIyiEBkpiuK82Ue2SOfXOmOTQGPF89rKBZRjB4w8
cVdDf/MeeXhzyphqJemFRS6FOw==
-----END CERTIFICATE-----
